; ModuleID = '2/1098.c'
source_filename = "2/1098.c"
target datalayout = "e-m:e-p270:32:32-p271:32:32-p272:64:64-i64:64-f80:128-n8:16:32:64-S128"
target triple = "x86_64-pc-linux-gnu"

%struct.stu = type { i32, [30 x i8], %struct.stu* }

@a = dso_local global [30 x i32] zeroinitializer, align 16
@.str = private unnamed_addr constant [6 x i8] c"%d %s\00", align 1
@b = common dso_local global [30 x [1000 x i32]] zeroinitializer, align 16
@.str.1 = private unnamed_addr constant [3 x i8] c"%d\00", align 1
@.str.2 = private unnamed_addr constant [7 x i8] c"%c\0A%d\0A\00", align 1
@.str.3 = private unnamed_addr constant [4 x i8] c"%d\0A\00", align 1

; Function Attrs: noinline nounwind uwtable
define dso_local %struct.stu* @creat(i32 %0) #0 {
  %2 = alloca i32, align 4
  %3 = alloca %struct.stu*, align 8
  %4 = alloca %struct.stu*, align 8
  %5 = alloca %struct.stu*, align 8
  %6 = alloca i32, align 4
  store i32 %0, i32* %2, align 4
  store i32 0, i32* %6, align 4
  %7 = call noalias i8* @malloc(i64 48) #4
  %8 = bitcast i8* %7 to %struct.stu*
  store %struct.stu* %8, %struct.stu** %4, align 8
  store %struct.stu* %8, %struct.stu** %3, align 8
  %9 = load %struct.stu*, %struct.stu** %3, align 8
  %10 = getelementptr inbounds %struct.stu, %struct.stu* %9, i32 0, i32 0
  %11 = load %struct.stu*, %struct.stu** %3, align 8
  %12 = getelementptr inbounds %struct.stu, %struct.stu* %11, i32 0, i32 1
  %13 = getelementptr inbounds [30 x i8], [30 x i8]* %12, i64 0, i64 0
  %14 = call i32 (i8*, ...) @__isoc99_scanf(i8* getelementptr inbounds ([6 x i8], [6 x i8]* @.str, i64 0, i64 0), i32* %10, i8* %13)
  store %struct.stu* null, %struct.stu** %5, align 8
  store i32 0, i32* %6, align 4
  br label %15

15:                                               ; preds = %44, %1
  %16 = load i32, i32* %6, align 4
  %17 = load i32, i32* %2, align 4
  %18 = icmp slt i32 %16, %17
  br i1 %18, label %19, label %47

19:                                               ; preds = %15
  %20 = load i32, i32* %6, align 4
  %21 = icmp eq i32 %20, 0
  br i1 %21, label %22, label %24

22:                                               ; preds = %19
  %23 = load %struct.stu*, %struct.stu** %3, align 8
  store %struct.stu* %23, %struct.stu** %5, align 8
  br label %28

24:                                               ; preds = %19
  %25 = load %struct.stu*, %struct.stu** %3, align 8
  %26 = load %struct.stu*, %struct.stu** %4, align 8
  %27 = getelementptr inbounds %struct.stu, %struct.stu* %26, i32 0, i32 2
  store %struct.stu* %25, %struct.stu** %27, align 8
  br label %28

28:                                               ; preds = %24, %22
  %29 = load %struct.stu*, %struct.stu** %3, align 8
  store %struct.stu* %29, %struct.stu** %4, align 8
  %30 = load i32, i32* %6, align 4
  %31 = load i32, i32* %2, align 4
  %32 = sub nsw i32 %31, 1
  %33 = icmp slt i32 %30, %32
  br i1 %33, label %34, label %43

34:                                               ; preds = %28
  %35 = call noalias i8* @malloc(i64 48) #4
  %36 = bitcast i8* %35 to %struct.stu*
  store %struct.stu* %36, %struct.stu** %3, align 8
  %37 = load %struct.stu*, %struct.stu** %3, align 8
  %38 = getelementptr inbounds %struct.stu, %struct.stu* %37, i32 0, i32 0
  %39 = load %struct.stu*, %struct.stu** %3, align 8
  %40 = getelementptr inbounds %struct.stu, %struct.stu* %39, i32 0, i32 1
  %41 = getelementptr inbounds [30 x i8], [30 x i8]* %40, i64 0, i64 0
  %42 = call i32 (i8*, ...) @__isoc99_scanf(i8* getelementptr inbounds ([6 x i8], [6 x i8]* @.str, i64 0, i64 0), i32* %38, i8* %41)
  br label %43

43:                                               ; preds = %34, %28
  br label %44

44:                                               ; preds = %43
  %45 = load i32, i32* %6, align 4
  %46 = add nsw i32 %45, 1
  store i32 %46, i32* %6, align 4
  br label %15

47:                                               ; preds = %15
  %48 = load %struct.stu*, %struct.stu** %4, align 8
  %49 = getelementptr inbounds %struct.stu, %struct.stu* %48, i32 0, i32 2
  store %struct.stu* null, %struct.stu** %49, align 8
  %50 = load %struct.stu*, %struct.stu** %5, align 8
  ret %struct.stu* %50
}

; Function Attrs: nounwind
declare dso_local noalias i8* @malloc(i64) #1

declare dso_local i32 @__isoc99_scanf(i8*, ...) #2

; Function Attrs: noinline nounwind uwtable
define dso_local i32 @check(%struct.stu* %0, i32 %1) #0 {
  %3 = alloca %struct.stu*, align 8
  %4 = alloca i32, align 4
  %5 = alloca i32, align 4
  %6 = alloca i32, align 4
  %7 = alloca i32, align 4
  %8 = alloca i32, align 4
  %9 = alloca i32, align 4
  %10 = alloca i8*, align 8
  %11 = alloca %struct.stu*, align 8
  store %struct.stu* %0, %struct.stu** %3, align 8
  store i32 %1, i32* %4, align 4
  store i32 0, i32* %8, align 4
  store i32 0, i32* %9, align 4
  %12 = load %struct.stu*, %struct.stu** %3, align 8
  store %struct.stu* %12, %struct.stu** %11, align 8
  store i32 0, i32* %5, align 4
  br label %13

13:                                               ; preds = %60, %2
  %14 = load i32, i32* %5, align 4
  %15 = load i32, i32* %4, align 4
  %16 = icmp slt i32 %14, %15
  br i1 %16, label %17, label %66

17:                                               ; preds = %13
  %18 = load %struct.stu*, %struct.stu** %11, align 8
  %19 = getelementptr inbounds %struct.stu, %struct.stu* %18, i32 0, i32 1
  %20 = getelementptr inbounds [30 x i8], [30 x i8]* %19, i64 0, i64 0
  %21 = call i64 @strlen(i8* %20) #5
  %22 = trunc i64 %21 to i32
  store i32 %22, i32* %7, align 4
  %23 = load %struct.stu*, %struct.stu** %11, align 8
  %24 = getelementptr inbounds %struct.stu, %struct.stu* %23, i32 0, i32 1
  %25 = getelementptr inbounds [30 x i8], [30 x i8]* %24, i64 0, i64 0
  store i8* %25, i8** %10, align 8
  store i32 0, i32* %6, align 4
  br label %26

26:                                               ; preds = %56, %17
  %27 = load i32, i32* %6, align 4
  %28 = load i32, i32* %7, align 4
  %29 = icmp slt i32 %27, %28
  br i1 %29, label %30, label %59

30:                                               ; preds = %26
  %31 = load i8*, i8** %10, align 8
  %32 = load i32, i32* %6, align 4
  %33 = sext i32 %32 to i64
  %34 = getelementptr inbounds i8, i8* %31, i64 %33
  %35 = load i8, i8* %34, align 1
  %36 = sext i8 %35 to i32
  %37 = sub nsw i32 %36, 64
  store i32 %37, i32* %8, align 4
  %38 = load i32, i32* %8, align 4
  %39 = sext i32 %38 to i64
  %40 = getelementptr inbounds [30 x i32], [30 x i32]* @a, i64 0, i64 %39
  %41 = load i32, i32* %40, align 4
  %42 = add nsw i32 %41, 1
  store i32 %42, i32* %40, align 4
  %43 = load %struct.stu*, %struct.stu** %11, align 8
  %44 = getelementptr inbounds %struct.stu, %struct.stu* %43, i32 0, i32 0
  %45 = load i32, i32* %44, align 8
  %46 = load i32, i32* %8, align 4
  %47 = sext i32 %46 to i64
  %48 = getelementptr inbounds [30 x [1000 x i32]], [30 x [1000 x i32]]* @b, i64 0, i64 %47
  %49 = load i32, i32* %8, align 4
  %50 = sext i32 %49 to i64
  %51 = getelementptr inbounds [30 x i32], [30 x i32]* @a, i64 0, i64 %50
  %52 = load i32, i32* %51, align 4
  %53 = sub nsw i32 %52, 1
  %54 = sext i32 %53 to i64
  %55 = getelementptr inbounds [1000 x i32], [1000 x i32]* %48, i64 0, i64 %54
  store i32 %45, i32* %55, align 4
  br label %56

56:                                               ; preds = %30
  %57 = load i32, i32* %6, align 4
  %58 = add nsw i32 %57, 1
  store i32 %58, i32* %6, align 4
  br label %26

59:                                               ; preds = %26
  br label %60

60:                                               ; preds = %59
  %61 = load i32, i32* %5, align 4
  %62 = add nsw i32 %61, 1
  store i32 %62, i32* %5, align 4
  %63 = load %struct.stu*, %struct.stu** %11, align 8
  %64 = getelementptr inbounds %struct.stu, %struct.stu* %63, i32 0, i32 2
  %65 = load %struct.stu*, %struct.stu** %64, align 8
  store %struct.stu* %65, %struct.stu** %11, align 8
  br label %13

66:                                               ; preds = %13
  store i32 1, i32* %5, align 4
  br label %67

67:                                               ; preds = %94, %66
  %68 = load i32, i32* %5, align 4
  %69 = icmp sle i32 %68, 26
  br i1 %69, label %70, label %97

70:                                               ; preds = %67
  store i32 1, i32* %6, align 4
  store i32 0, i32* %9, align 4
  br label %71

71:                                               ; preds = %86, %70
  %72 = load i32, i32* %6, align 4
  %73 = icmp sle i32 %72, 26
  br i1 %73, label %74, label %89

74:                                               ; preds = %71
  %75 = load i32, i32* %5, align 4
  %76 = sext i32 %75 to i64
  %77 = getelementptr inbounds [30 x i32], [30 x i32]* @a, i64 0, i64 %76
  %78 = load i32, i32* %77, align 4
  %79 = load i32, i32* %6, align 4
  %80 = sext i32 %79 to i64
  %81 = getelementptr inbounds [30 x i32], [30 x i32]* @a, i64 0, i64 %80
  %82 = load i32, i32* %81, align 4
  %83 = icmp slt i32 %78, %82
  br i1 %83, label %84, label %85

84:                                               ; preds = %74
  store i32 1, i32* %9, align 4
  br label %89

85:                                               ; preds = %74
  br label %86

86:                                               ; preds = %85
  %87 = load i32, i32* %6, align 4
  %88 = add nsw i32 %87, 1
  store i32 %88, i32* %6, align 4
  br label %71

89:                                               ; preds = %84, %71
  %90 = load i32, i32* %9, align 4
  %91 = icmp eq i32 %90, 0
  br i1 %91, label %92, label %93

92:                                               ; preds = %89
  br label %97

93:                                               ; preds = %89
  br label %94

94:                                               ; preds = %93
  %95 = load i32, i32* %5, align 4
  %96 = add nsw i32 %95, 1
  store i32 %96, i32* %5, align 4
  br label %67

97:                                               ; preds = %92, %67
  %98 = load i32, i32* %5, align 4
  ret i32 %98
}

; Function Attrs: nounwind readonly
declare dso_local i64 @strlen(i8*) #3

; Function Attrs: noinline nounwind uwtable
define dso_local void @main() #0 {
  %1 = alloca %struct.stu*, align 8
  %2 = alloca i32, align 4
  %3 = alloca i32, align 4
  %4 = alloca i32, align 4
  %5 = call i32 (i8*, ...) @__isoc99_scanf(i8* getelementptr inbounds ([3 x i8], [3 x i8]* @.str.1, i64 0, i64 0), i32* %4)
  %6 = load i32, i32* %4, align 4
  %7 = call %struct.stu* @creat(i32 %6)
  store %struct.stu* %7, %struct.stu** %1, align 8
  %8 = load %struct.stu*, %struct.stu** %1, align 8
  %9 = load i32, i32* %4, align 4
  %10 = call i32 @check(%struct.stu* %8, i32 %9)
  store i32 %10, i32* %2, align 4
  %11 = load i32, i32* %2, align 4
  %12 = add nsw i32 %11, 64
  %13 = load i32, i32* %2, align 4
  %14 = sext i32 %13 to i64
  %15 = getelementptr inbounds [30 x i32], [30 x i32]* @a, i64 0, i64 %14
  %16 = load i32, i32* %15, align 4
  %17 = call i32 (i8*, ...) @printf(i8* getelementptr inbounds ([7 x i8], [7 x i8]* @.str.2, i64 0, i64 0), i32 %12, i32 %16)
  store i32 0, i32* %3, align 4
  br label %18

18:                                               ; preds = %34, %0
  %19 = load i32, i32* %3, align 4
  %20 = load i32, i32* %2, align 4
  %21 = sext i32 %20 to i64
  %22 = getelementptr inbounds [30 x i32], [30 x i32]* @a, i64 0, i64 %21
  %23 = load i32, i32* %22, align 4
  %24 = icmp slt i32 %19, %23
  br i1 %24, label %25, label %37

25:                                               ; preds = %18
  %26 = load i32, i32* %2, align 4
  %27 = sext i32 %26 to i64
  %28 = getelementptr inbounds [30 x [1000 x i32]], [30 x [1000 x i32]]* @b, i64 0, i64 %27
  %29 = load i32, i32* %3, align 4
  %30 = sext i32 %29 to i64
  %31 = getelementptr inbounds [1000 x i32], [1000 x i32]* %28, i64 0, i64 %30
  %32 = load i32, i32* %31, align 4
  %33 = call i32 (i8*, ...) @printf(i8* getelementptr inbounds ([4 x i8], [4 x i8]* @.str.3, i64 0, i64 0), i32 %32)
  br label %34

34:                                               ; preds = %25
  %35 = load i32, i32* %3, align 4
  %36 = add nsw i32 %35, 1
  store i32 %36, i32* %3, align 4
  br label %18

37:                                               ; preds = %18
  ret void
}

declare dso_local i32 @printf(i8*, ...) #2


!llvm.module.flags = !{!0}
!llvm.ident = !{!1}

!0 = !{i32 1, !"wchar_size", i32 4}
!1 = !{!"clang version 10.0.0-4ubuntu1 "}
